target datalayout = "e-m:e-p270:32:32-p271:32:32-p272:64:64-i64:64-i128:128-f80:128-n8:16:32:64-S128"
target triple = "x86_64-pc-linux-gnu"

%struct.AVTXContext = type { i32, i32, ptr, ptr, ptr, ptr, [4 x ptr], i32, [4 x ptr], ptr, i32, i64, i32, float, double, ptr }

; Function Attrs: cold nounwind optsize uwtable
define internal i32 @ff_tx_null_init(ptr noundef %0, ptr noundef %1, i64 noundef %2, ptr noundef %3, i32 noundef %4, i32 noundef %5, ptr noundef %6) #7 {
  %8 = alloca i32, align 4
  %9 = alloca ptr, align 8
  %10 = alloca ptr, align 8
  %11 = alloca i64, align 8
  %12 = alloca ptr, align 8
  %13 = alloca i32, align 4
  %14 = alloca i32, align 4
  %15 = alloca ptr, align 8
  store ptr %0, ptr %9, align 8, !tbaa !4
  store ptr %1, ptr %10, align 8, !tbaa !59
  store i64 %2, ptr %11, align 8, !tbaa !93
  store ptr %3, ptr %12, align 8, !tbaa !9
  store i32 %4, ptr %13, align 4, !tbaa !11
  store i32 %5, ptr %14, align 4, !tbaa !11
  store ptr %6, ptr %15, align 8, !tbaa !76
  %16 = load ptr, ptr %9, align 8, !tbaa !4
  %17 = getelementptr inbounds nuw %struct.AVTXContext, ptr %16, i32 0, i32 10
  %18 = load i32, ptr %17, align 8, !tbaa !111
  %19 = icmp eq i32 %18, 1
  br i1 %19, label %45, label %20

20:                                               ; preds = %7
  %21 = load ptr, ptr %9, align 8, !tbaa !4
  %22 = getelementptr inbounds nuw %struct.AVTXContext, ptr %21, i32 0, i32 10
  %23 = load i32, ptr %22, align 8, !tbaa !111
  %24 = icmp eq i32 %23, 3
  br i1 %24, label %45, label %25

25:                                               ; preds = %20
  %26 = load ptr, ptr %9, align 8, !tbaa !4
  %27 = getelementptr inbounds nuw %struct.AVTXContext, ptr %26, i32 0, i32 10
  %28 = load i32, ptr %27, align 8, !tbaa !111
  %29 = icmp eq i32 %28, 5
  br i1 %29, label %45, label %30

30:                                               ; preds = %25
  %31 = load ptr, ptr %9, align 8, !tbaa !4
  %32 = getelementptr inbounds nuw %struct.AVTXContext, ptr %31, i32 0, i32 10
  %33 = load i32, ptr %32, align 8, !tbaa !111
  %34 = icmp eq i32 %33, 6
  br i1 %34, label %45, label %35

35:                                               ; preds = %30
  %36 = load ptr, ptr %9, align 8, !tbaa !4
  %37 = getelementptr inbounds nuw %struct.AVTXContext, ptr %36, i32 0, i32 10
  %38 = load i32, ptr %37, align 8, !tbaa !111
  %39 = icmp eq i32 %38, 7
  br i1 %39, label %45, label %40

40:                                               ; preds = %35
  %41 = load ptr, ptr %9, align 8, !tbaa !4
  %42 = getelementptr inbounds nuw %struct.AVTXContext, ptr %41, i32 0, i32 10
  %43 = load i32, ptr %42, align 8, !tbaa !111
  %44 = icmp eq i32 %43, 8
  br i1 %44, label %45, label %46

45:                                               ; preds = %40, %35, %30, %25, %20, %7
  store i32 -22, ptr %8, align 4
  br label %47

46:                                               ; preds = %40
  store i32 0, ptr %8, align 4
  br label %47

47:                                               ; preds = %46, %45
  %48 = load i32, ptr %8, align 4
  ret i32 %48
}