; Function Attrs: cold mustprogress nofree norecurse nosync nounwind optsize willreturn memory(argmem: read) uwtable
define internal range(i32 -22, 1) i32 @ff_tx_null_init(ptr noundef readonly captures(none) %0, ptr readnone captures(none) %1, i64 %2, ptr readnone captures(none) %3, i32 %4, i32 %5, ptr readnone captures(none) %6) #11 {
  %8 = getelementptr inbounds nuw i8, ptr %0, i64 120
  %9 = load i32, ptr %8, align 8, !tbaa !100
  %switch.tableidx = add i32 %9, -1
  %10 = icmp ult i32 %switch.tableidx, 8
  br i1 %10, label %switch.lookup, label %12

switch.lookup:                                    ; preds = %7
  %11 = zext nneg i32 %switch.tableidx to i64
  %switch.gep = getelementptr inbounds nuw [8 x i32], ptr @switch.table.ff_tx_null_init, i64 0, i64 %11
  %switch.load = load i32, ptr %switch.gep, align 4
  br label %12

12:                                               ; preds = %7, %switch.lookup
  %.0 = phi i32 [ %switch.load, %switch.lookup ], [ 0, %7 ]
  ret i32 %.0
}